target datalayout = "e-m:e-p270:32:32-p271:32:32-p272:64:64-i64:64-i128:128-f80:128-n8:16:32:64-S128"
target triple = "x86_64-pc-linux-gnu"

; Function Attrs: mustprogress nounwind uwtable
define ptr @u_memset_77(ptr noundef %0, i16 noundef zeroext %1, i32 noundef %2) #3 {
  %4 = alloca ptr, align 8
  %5 = alloca i16, align 2
  %6 = alloca i32, align 4
  %7 = alloca ptr, align 8
  %8 = alloca ptr, align 8
  store ptr %0, ptr %4, align 8, !tbaa !3
  store i16 %1, ptr %5, align 2, !tbaa !10
  store i32 %2, ptr %6, align 4, !tbaa !8
  %9 = load i32, ptr %6, align 4, !tbaa !8
  %10 = icmp sgt i32 %9, 0
  br i1 %10, label %11, label %26

11:                                               ; preds = %3
  call void @llvm.lifetime.start.p0(i64 8, ptr %7) #7
  %12 = load ptr, ptr %4, align 8, !tbaa !3
  store ptr %12, ptr %7, align 8, !tbaa !3
  call void @llvm.lifetime.start.p0(i64 8, ptr %8) #7
  %13 = load ptr, ptr %4, align 8, !tbaa !3
  %14 = load i32, ptr %6, align 4, !tbaa !8
  %15 = sext i32 %14 to i64
  %16 = getelementptr inbounds i16, ptr %13, i64 %15
  store ptr %16, ptr %8, align 8, !tbaa !3
  br label %17

17:                                               ; preds = %21, %11
  %18 = load ptr, ptr %7, align 8, !tbaa !3
  %19 = load ptr, ptr %8, align 8, !tbaa !3
  %20 = icmp ult ptr %18, %19
  br i1 %20, label %21, label %25

21:                                               ; preds = %17
  %22 = load i16, ptr %5, align 2, !tbaa !10
  %23 = load ptr, ptr %7, align 8, !tbaa !3
  %24 = getelementptr inbounds nuw i16, ptr %23, i32 1
  store ptr %24, ptr %7, align 8, !tbaa !3
  store i16 %22, ptr %23, align 2, !tbaa !10
  br label %17, !llvm.loop !66

25:                                               ; preds = %17
  call void @llvm.lifetime.end.p0(i64 8, ptr %8) #7
  call void @llvm.lifetime.end.p0(i64 8, ptr %7) #7
  br label %26

26:                                               ; preds = %25, %3
  %27 = load ptr, ptr %4, align 8, !tbaa !3
  ret ptr %27
}