; Function Attrs: mustprogress nofree norecurse nosync nounwind memory(argmem: write) uwtable
define noundef ptr @u_memset_77(ptr noundef returned writeonly %0, i16 noundef zeroext %1, i32 noundef %2) local_unnamed_addr #9 {
  %4 = icmp sgt i32 %2, 0
  br i1 %4, label %.lr.ph.preheader, label %.loopexit

.lr.ph.preheader:                                 ; preds = %3
  %5 = zext nneg i32 %2 to i64
  %6 = getelementptr inbounds nuw i16, ptr %0, i64 %5
  br label %.lr.ph

.lr.ph:                                           ; preds = %.lr.ph.preheader, %.lr.ph
  %.09 = phi ptr [ %7, %.lr.ph ], [ %0, %.lr.ph.preheader ]
  %7 = getelementptr inbounds nuw i8, ptr %.09, i64 2
  store i16 %1, ptr %.09, align 2, !tbaa !3
  %8 = icmp ult ptr %7, %6
  br i1 %8, label %.lr.ph, label %.loopexit, !llvm.loop !57

.loopexit:                                        ; preds = %.lr.ph, %3
  ret ptr %0
}